; ModuleID = '13/988.c'
source_filename = "13/988.c"
target datalayout = "e-m:e-p270:32:32-p271:32:32-p272:64:64-i64:64-f80:128-n8:16:32:64-S128"
target triple = "x86_64-pc-linux-gnu"

@.str = private unnamed_addr constant [3 x i8] c"%d\00", align 1
@.str.1 = private unnamed_addr constant [4 x i8] c"%d \00", align 1

; Function Attrs: noinline nounwind uwtable
define dso_local i32 @main() #0 {
  %1 = alloca i32, align 4
  %2 = alloca i32, align 4
  %3 = alloca i32, align 4
  %4 = alloca i32, align 4
  %5 = alloca i32, align 4
  %6 = alloca i32, align 4
  %7 = alloca i32, align 4
  %8 = alloca i32, align 4
  %9 = alloca [20000 x i32], align 16
  %10 = alloca [20000 x i32], align 16
  store i32 0, i32* %1, align 4
  %11 = call i32 (i8*, ...) @__isoc99_scanf(i8* getelementptr inbounds ([3 x i8], [3 x i8]* @.str, i64 0, i64 0), i32* %2)
  store i32 0, i32* %3, align 4
  br label %12

12:                                               ; preds = %21, %0
  %13 = load i32, i32* %3, align 4
  %14 = load i32, i32* %2, align 4
  %15 = icmp slt i32 %13, %14
  br i1 %15, label %16, label %24

16:                                               ; preds = %12
  %17 = load i32, i32* %3, align 4
  %18 = sext i32 %17 to i64
  %19 = getelementptr inbounds [20000 x i32], [20000 x i32]* %9, i64 0, i64 %18
  %20 = call i32 (i8*, ...) @__isoc99_scanf(i8* getelementptr inbounds ([3 x i8], [3 x i8]* @.str, i64 0, i64 0), i32* %19)
  br label %21

21:                                               ; preds = %16
  %22 = load i32, i32* %3, align 4
  %23 = add nsw i32 %22, 1
  store i32 %23, i32* %3, align 4
  br label %12

24:                                               ; preds = %12
  store i32 0, i32* %8, align 4
  store i32 0, i32* %5, align 4
  store i32 0, i32* %3, align 4
  br label %25

25:                                               ; preds = %69, %24
  %26 = load i32, i32* %3, align 4
  %27 = load i32, i32* %2, align 4
  %28 = icmp slt i32 %26, %27
  br i1 %28, label %29, label %72

29:                                               ; preds = %25
  %30 = load i32, i32* %3, align 4
  %31 = sext i32 %30 to i64
  %32 = getelementptr inbounds [20000 x i32], [20000 x i32]* %9, i64 0, i64 %31
  %33 = load i32, i32* %32, align 4
  store i32 %33, i32* %7, align 4
  store i32 0, i32* %4, align 4
  br label %34

34:                                               ; preds = %55, %29
  %35 = load i32, i32* %4, align 4
  %36 = load i32, i32* %3, align 4
  %37 = icmp sle i32 %35, %36
  br i1 %37, label %38, label %58

38:                                               ; preds = %34
  %39 = load i32, i32* %3, align 4
  %40 = load i32, i32* %4, align 4
  %41 = icmp eq i32 %39, %40
  br i1 %41, label %42, label %44

42:                                               ; preds = %38
  %43 = load i32, i32* %7, align 4
  store i32 %43, i32* %8, align 4
  br label %55

44:                                               ; preds = %38
  %45 = load i32, i32* %7, align 4
  %46 = load i32, i32* %4, align 4
  %47 = sext i32 %46 to i64
  %48 = getelementptr inbounds [20000 x i32], [20000 x i32]* %9, i64 0, i64 %47
  %49 = load i32, i32* %48, align 4
  %50 = icmp ne i32 %45, %49
  br i1 %50, label %51, label %53

51:                                               ; preds = %44
  %52 = load i32, i32* %7, align 4
  store i32 %52, i32* %8, align 4
  br label %54

53:                                               ; preds = %44
  store i32 0, i32* %8, align 4
  br label %58

54:                                               ; preds = %51
  br label %55

55:                                               ; preds = %54, %42
  %56 = load i32, i32* %4, align 4
  %57 = add nsw i32 %56, 1
  store i32 %57, i32* %4, align 4
  br label %34

58:                                               ; preds = %53, %34
  %59 = load i32, i32* %8, align 4
  %60 = icmp ne i32 %59, 0
  br i1 %60, label %61, label %68

61:                                               ; preds = %58
  %62 = load i32, i32* %5, align 4
  %63 = add nsw i32 %62, 1
  store i32 %63, i32* %5, align 4
  %64 = load i32, i32* %8, align 4
  %65 = load i32, i32* %5, align 4
  %66 = sext i32 %65 to i64
  %67 = getelementptr inbounds [20000 x i32], [20000 x i32]* %10, i64 0, i64 %66
  store i32 %64, i32* %67, align 4
  br label %68

68:                                               ; preds = %61, %58
  br label %69

69:                                               ; preds = %68
  %70 = load i32, i32* %3, align 4
  %71 = add nsw i32 %70, 1
  store i32 %71, i32* %3, align 4
  br label %25

72:                                               ; preds = %25
  store i32 1, i32* %6, align 4
  br label %73

73:                                               ; preds = %94, %72
  %74 = load i32, i32* %6, align 4
  %75 = load i32, i32* %5, align 4
  %76 = icmp sle i32 %74, %75
  br i1 %76, label %77, label %97

77:                                               ; preds = %73
  %78 = load i32, i32* %6, align 4
  %79 = load i32, i32* %5, align 4
  %80 = icmp ne i32 %78, %79
  br i1 %80, label %81, label %87

81:                                               ; preds = %77
  %82 = load i32, i32* %6, align 4
  %83 = sext i32 %82 to i64
  %84 = getelementptr inbounds [20000 x i32], [20000 x i32]* %10, i64 0, i64 %83
  %85 = load i32, i32* %84, align 4
  %86 = call i32 (i8*, ...) @printf(i8* getelementptr inbounds ([4 x i8], [4 x i8]* @.str.1, i64 0, i64 0), i32 %85)
  br label %93

87:                                               ; preds = %77
  %88 = load i32, i32* %6, align 4
  %89 = sext i32 %88 to i64
  %90 = getelementptr inbounds [20000 x i32], [20000 x i32]* %10, i64 0, i64 %89
  %91 = load i32, i32* %90, align 4
  %92 = call i32 (i8*, ...) @printf(i8* getelementptr inbounds ([3 x i8], [3 x i8]* @.str, i64 0, i64 0), i32 %91)
  br label %93

93:                                               ; preds = %87, %81
  br label %94

94:                                               ; preds = %93
  %95 = load i32, i32* %6, align 4
  %96 = add nsw i32 %95, 1
  store i32 %96, i32* %6, align 4
  br label %73

97:                                               ; preds = %73
  ret i32 0
}

declare dso_local i32 @__isoc99_scanf(i8*, ...) #1

declare dso_local i32 @printf(i8*, ...) #1


!llvm.module.flags = !{!0}
!llvm.ident = !{!1}

!0 = !{i32 1, !"wchar_size", i32 4}
!1 = !{!"clang version 10.0.0-4ubuntu1 "}
