; ModuleID = 'source-C-CXX/12/988.c'
source_filename = "source-C-CXX/12/988.c"
target datalayout = "e-m:e-p270:32:32-p271:32:32-p272:64:64-i64:64-f80:128-n8:16:32:64-S128"
target triple = "x86_64-pc-linux-gnu"

@.str = private unnamed_addr constant [3 x i8] c"%d\00", align 1
@.str.1 = private unnamed_addr constant [4 x i8] c"%d \00", align 1

; Function Attrs: nofree nounwind sspstrong uwtable
define dso_local i32 @main() local_unnamed_addr #0 {
  %1 = alloca i32, align 4
  %2 = alloca [20000 x i32], align 16
  %3 = alloca [20000 x i32], align 16
  %4 = bitcast i32* %1 to i8*
  call void @llvm.lifetime.start.p0i8(i64 4, i8* nonnull %4) #3
  %5 = call i32 (i8*, ...) @__isoc99_scanf(i8* getelementptr inbounds ([3 x i8], [3 x i8]* @.str, i64 0, i64 0), i32* nonnull %1)
  %6 = bitcast [20000 x i32]* %2 to i8*
  call void @llvm.lifetime.start.p0i8(i64 80000, i8* nonnull %6) #3
  %7 = bitcast [20000 x i32]* %3 to i8*
  call void @llvm.lifetime.start.p0i8(i64 80000, i8* nonnull %7) #3
  %8 = load i32, i32* %1, align 4, !tbaa !5
  %9 = icmp sgt i32 %8, 0
  br i1 %9, label %14, label %66

10:                                               ; preds = %14
  %11 = icmp sgt i32 %19, 0
  br i1 %11, label %12, label %66

12:                                               ; preds = %10
  %13 = zext i32 %19 to i64
  br label %29

14:                                               ; preds = %0, %14
  %15 = phi i64 [ %18, %14 ], [ 0, %0 ]
  %16 = getelementptr inbounds [20000 x i32], [20000 x i32]* %2, i64 0, i64 %15
  %17 = call i32 (i8*, ...) @__isoc99_scanf(i8* getelementptr inbounds ([3 x i8], [3 x i8]* @.str, i64 0, i64 0), i32* nonnull %16)
  %18 = add nuw nsw i64 %15, 1
  %19 = load i32, i32* %1, align 4, !tbaa !5
  %20 = sext i32 %19 to i64
  %21 = icmp slt i64 %18, %20
  br i1 %21, label %14, label %10, !llvm.loop !9

22:                                               ; preds = %51
  %23 = icmp slt i32 %52, 1
  br i1 %23, label %66, label %24

24:                                               ; preds = %22
  %25 = zext i32 %52 to i64
  %26 = add nuw i32 %52, 1
  %27 = zext i32 %26 to i64
  %28 = getelementptr inbounds [20000 x i32], [20000 x i32]* %3, i64 0, i64 %25
  br label %56

29:                                               ; preds = %12, %51
  %30 = phi i64 [ 0, %12 ], [ %53, %51 ]
  %31 = phi i64 [ 1, %12 ], [ %54, %51 ]
  %32 = phi i32 [ 0, %12 ], [ %52, %51 ]
  %33 = getelementptr inbounds [20000 x i32], [20000 x i32]* %2, i64 0, i64 %30
  %34 = load i32, i32* %33, align 4, !tbaa !5
  br label %35

35:                                               ; preds = %29, %42
  %36 = phi i64 [ 0, %29 ], [ %43, %42 ]
  %37 = icmp eq i64 %30, %36
  br i1 %37, label %42, label %38

38:                                               ; preds = %35
  %39 = getelementptr inbounds [20000 x i32], [20000 x i32]* %2, i64 0, i64 %36
  %40 = load i32, i32* %39, align 4, !tbaa !5
  %41 = icmp eq i32 %34, %40
  br i1 %41, label %51, label %42

42:                                               ; preds = %38, %35
  %43 = add nuw nsw i64 %36, 1
  %44 = icmp eq i64 %43, %31
  br i1 %44, label %45, label %35, !llvm.loop !11

45:                                               ; preds = %42
  %46 = icmp eq i32 %34, 0
  br i1 %46, label %51, label %47

47:                                               ; preds = %45
  %48 = add nsw i32 %32, 1
  %49 = sext i32 %48 to i64
  %50 = getelementptr inbounds [20000 x i32], [20000 x i32]* %3, i64 0, i64 %49
  store i32 %34, i32* %50, align 4, !tbaa !5
  br label %51

51:                                               ; preds = %38, %45, %47
  %52 = phi i32 [ %48, %47 ], [ %32, %45 ], [ %32, %38 ]
  %53 = add nuw nsw i64 %30, 1
  %54 = add nuw nsw i64 %31, 1
  %55 = icmp eq i64 %53, %13
  br i1 %55, label %22, label %29, !llvm.loop !12

56:                                               ; preds = %24, %56
  %57 = phi i64 [ 1, %24 ], [ %64, %56 ]
  %58 = icmp eq i64 %57, %25
  %59 = getelementptr inbounds [20000 x i32], [20000 x i32]* %3, i64 0, i64 %57
  %60 = select i1 %58, i32* %28, i32* %59
  %61 = select i1 %58, i8* getelementptr inbounds ([3 x i8], [3 x i8]* @.str, i64 0, i64 0), i8* getelementptr inbounds ([4 x i8], [4 x i8]* @.str.1, i64 0, i64 0)
  %62 = load i32, i32* %60, align 4, !tbaa !5
  %63 = call i32 (i8*, ...) @printf(i8* nonnull dereferenceable(1) %61, i32 %62)
  %64 = add nuw nsw i64 %57, 1
  %65 = icmp eq i64 %64, %27
  br i1 %65, label %66, label %56, !llvm.loop !13

66:                                               ; preds = %56, %0, %10, %22
  call void @llvm.lifetime.end.p0i8(i64 80000, i8* nonnull %7) #3
  call void @llvm.lifetime.end.p0i8(i64 80000, i8* nonnull %6) #3
  call void @llvm.lifetime.end.p0i8(i64 4, i8* nonnull %4) #3
  ret i32 0
}

; Function Attrs: argmemonly mustprogress nofree nosync nounwind willreturn
declare void @llvm.lifetime.start.p0i8(i64 immarg, i8* nocapture) #1

; Function Attrs: nofree nounwind
declare noundef i32 @__isoc99_scanf(i8* nocapture noundef readonly, ...) local_unnamed_addr #2

; Function Attrs: nofree nounwind
declare noundef i32 @printf(i8* nocapture noundef readonly, ...) local_unnamed_addr #2

; Function Attrs: argmemonly mustprogress nofree nosync nounwind willreturn
declare void @llvm.lifetime.end.p0i8(i64 immarg, i8* nocapture) #1


!llvm.module.flags = !{!0, !1, !2, !3}
!llvm.ident = !{!4}

!0 = !{i32 1, !"wchar_size", i32 4}
!1 = !{i32 7, !"PIC Level", i32 2}
!2 = !{i32 7, !"PIE Level", i32 2}
!3 = !{i32 7, !"uwtable", i32 1}
!4 = !{!"clang version 13.0.0"}
!5 = !{!6, !6, i64 0}
!6 = !{!"int", !7, i64 0}
!7 = !{!"omnipotent char", !8, i64 0}
!8 = !{!"Simple C/C++ TBAA"}
!9 = distinct !{!9, !10}
!10 = !{!"llvm.loop.mustprogress"}
!11 = distinct !{!11, !10}
!12 = distinct !{!12, !10}
!13 = distinct !{!13, !10}
